target datalayout = "e-m:e-p270:32:32-p271:32:32-p272:64:64-i64:64-i128:128-f80:128-n8:16:32:64-S128"
target triple = "x86_64-pc-linux-gnu"

%class.LogSelection = type { i64, [5 x i32], i8, i32, i64 }

@.str = private unnamed_addr constant [5 x i8] c"%s%s\00", align 1
@.str.5 = private unnamed_addr constant [1 x i8] zeroinitializer, align 1
@.str.6 = private unnamed_addr constant [2 x i8] c"+\00", align 1
@.str.7 = private unnamed_addr constant [2 x i8] c"*\00", align 1
@.str.8 = private unnamed_addr constant [4 x i8] c"=%s\00", align 1
@_ZN6LogTag5_nameE = external constant [0 x ptr], align 8
@_ZN8LogLevel5_nameE = external global [0 x ptr], align 8

; Function Attrs: mustprogress nounwind uwtable
define linkonce_odr hidden noundef ptr @_ZN6LogTag4nameENS_4typeE(i32 noundef %0) #1 comdat align 2 {
  %2 = alloca i32, align 4
  store i32 %0, ptr %2, align 4
  %3 = load i32, ptr %2, align 4
  %4 = zext i32 %3 to i64
  %5 = getelementptr inbounds [0 x ptr], ptr @_ZN6LogTag5_nameE, i64 0, i64 %4
  %6 = load ptr, ptr %5, align 8
  ret ptr %6
}

; Function Attrs: mustprogress nounwind uwtable
define linkonce_odr hidden noundef ptr @_ZN8LogLevel4nameENS_4typeE(i32 noundef %0) #1 comdat align 2 {
  %2 = alloca i32, align 4
  store i32 %0, ptr %2, align 4
  %3 = load i32, ptr %2, align 4
  %4 = zext i32 %3 to i64
  %5 = getelementptr inbounds [0 x ptr], ptr @_ZN8LogLevel5_nameE, i64 0, i64 %4
  %6 = load ptr, ptr %5, align 8
  ret ptr %6
}

; Function Attrs: mustprogress nounwind uwtable
define hidden void @_ZNK12LogSelection16describe_tags_onEP12outputStream(ptr noundef nonnull align 8 dereferenceable(48) %0, ptr noundef %1) #1 align 2 {
  %3 = alloca ptr, align 8
  %4 = alloca ptr, align 8
  %5 = alloca i64, align 8
  store ptr %0, ptr %3, align 8
  store ptr %1, ptr %4, align 8
  %6 = load ptr, ptr %3, align 8
  store i64 0, ptr %5, align 8
  br label %7

7:                                                ; preds = %22, %2
  %8 = load i64, ptr %5, align 8
  %9 = getelementptr inbounds %class.LogSelection, ptr %6, i32 0, i32 0
  %10 = load i64, ptr %9, align 8
  %11 = icmp ult i64 %8, %10
  br i1 %11, label %12, label %25

12:                                               ; preds = %7
  %13 = load ptr, ptr %4, align 8
  %14 = load i64, ptr %5, align 8
  %15 = icmp eq i64 %14, 0
  %16 = select i1 %15, ptr @.str.5, ptr @.str.6
  %17 = getelementptr inbounds %class.LogSelection, ptr %6, i32 0, i32 1
  %18 = load i64, ptr %5, align 8
  %19 = getelementptr inbounds [5 x i32], ptr %17, i64 0, i64 %18
  %20 = load i32, ptr %19, align 4
  %21 = call noundef ptr @_ZN6LogTag4nameENS_4typeE(i32 noundef %20)
  call void (ptr, ptr, ...) @_ZN12outputStream5printEPKcz(ptr noundef nonnull align 8 dereferenceable(56) %13, ptr noundef @.str, ptr noundef %16, ptr noundef %21)
  br label %22

22:                                               ; preds = %12
  %23 = load i64, ptr %5, align 8
  %24 = add i64 %23, 1
  store i64 %24, ptr %5, align 8
  br label %7, !llvm.loop !17

25:                                               ; preds = %7
  %26 = getelementptr inbounds %class.LogSelection, ptr %6, i32 0, i32 2
  %27 = load i8, ptr %26, align 4
  %28 = trunc i8 %27 to i1
  br i1 %28, label %29, label %31

29:                                               ; preds = %25
  %30 = load ptr, ptr %4, align 8
  call void (ptr, ptr, ...) @_ZN12outputStream5printEPKcz(ptr noundef nonnull align 8 dereferenceable(56) %30, ptr noundef @.str.7)
  br label %31

31:                                               ; preds = %29, %25
  ret void
}

; Function Attrs: mustprogress nounwind uwtable
define hidden void @_ZNK12LogSelection11describe_onEP12outputStream(ptr noundef nonnull align 8 dereferenceable(48) %0, ptr noundef %1) #1 align 2 {
  %3 = alloca ptr, align 8
  %4 = alloca ptr, align 8
  store ptr %0, ptr %3, align 8
  store ptr %1, ptr %4, align 8
  %5 = load ptr, ptr %3, align 8
  %6 = load ptr, ptr %4, align 8
  call void @_ZNK12LogSelection16describe_tags_onEP12outputStream(ptr noundef nonnull align 8 dereferenceable(48) %5, ptr noundef %6)
  %7 = load ptr, ptr %4, align 8
  %8 = getelementptr inbounds %class.LogSelection, ptr %5, i32 0, i32 3
  %9 = load i32, ptr %8, align 8
  %10 = call noundef ptr @_ZN8LogLevel4nameENS_4typeE(i32 noundef %9)
  call void (ptr, ptr, ...) @_ZN12outputStream5printEPKcz(ptr noundef nonnull align 8 dereferenceable(56) %7, ptr noundef @.str.8, ptr noundef %10)
  ret void
}