; Function Attrs: mustprogress nounwind uwtable
define hidden void @_ZNK12LogSelection11describe_onEP12outputStream(ptr nocapture noundef nonnull readonly align 8 dereferenceable(48) %0, ptr noundef %1) local_unnamed_addr #3 align 2 {
  %3 = load i64, ptr %0, align 8
  %.not.i = icmp eq i64 %3, 0
  br i1 %.not.i, label %._crit_edge.i, label %.lr.ph.i

.lr.ph.i:                                         ; preds = %2
  %4 = getelementptr inbounds i8, ptr %0, i64 8
  br label %5

5:                                                ; preds = %5, %.lr.ph.i
  %.06.i = phi i64 [ 0, %.lr.ph.i ], [ %13, %5 ]
  %6 = icmp eq i64 %.06.i, 0
  %7 = select i1 %6, ptr @.str.5, ptr @.str.6
  %8 = getelementptr inbounds [5 x i32], ptr %4, i64 0, i64 %.06.i
  %9 = load i32, ptr %8, align 4
  %10 = zext i32 %9 to i64
  %11 = getelementptr inbounds [0 x ptr], ptr @_ZN6LogTag5_nameE, i64 0, i64 %10
  %12 = load ptr, ptr %11, align 8
  tail call void (ptr, ptr, ...) @_ZN12outputStream5printEPKcz(ptr noundef nonnull align 8 dereferenceable(56) %1, ptr noundef nonnull @.str, ptr noundef nonnull %7, ptr noundef %12) #10
  %13 = add nuw i64 %.06.i, 1
  %14 = load i64, ptr %0, align 8
  %15 = icmp ult i64 %13, %14
  br i1 %15, label %5, label %._crit_edge.i, !llvm.loop !20

._crit_edge.i:                                    ; preds = %5, %2
  %16 = getelementptr inbounds i8, ptr %0, i64 28
  %17 = load i8, ptr %16, align 4
  %18 = trunc i8 %17 to i1
  br i1 %18, label %19, label %_ZNK12LogSelection16describe_tags_onEP12outputStream.exit

19:                                               ; preds = %._crit_edge.i
  tail call void (ptr, ptr, ...) @_ZN12outputStream5printEPKcz(ptr noundef nonnull align 8 dereferenceable(56) %1, ptr noundef nonnull @.str.7) #10
  br label %_ZNK12LogSelection16describe_tags_onEP12outputStream.exit

_ZNK12LogSelection16describe_tags_onEP12outputStream.exit: ; preds = %._crit_edge.i, %19
  %20 = getelementptr inbounds i8, ptr %0, i64 32
  %21 = load i32, ptr %20, align 8
  %22 = zext i32 %21 to i64
  %23 = getelementptr inbounds [0 x ptr], ptr @_ZN8LogLevel5_nameE, i64 0, i64 %22
  %24 = load ptr, ptr %23, align 8
  tail call void (ptr, ptr, ...) @_ZN12outputStream5printEPKcz(ptr noundef nonnull align 8 dereferenceable(56) %1, ptr noundef nonnull @.str.8, ptr noundef %24) #10
  ret void
}